; ModuleID = 'source-C-CXX/44/1186.c'
source_filename = "source-C-CXX/44/1186.c"
target datalayout = "e-m:e-p270:32:32-p271:32:32-p272:64:64-i64:64-f80:128-n8:16:32:64-S128"
target triple = "x86_64-pc-linux-gnu"

@.str = private unnamed_addr constant [3 x i8] c"%s\00", align 1
@.str.1 = private unnamed_addr constant [3 x i8] c"%d\00", align 1

; Function Attrs: nounwind sspstrong uwtable
define dso_local i32 @main() local_unnamed_addr #0 {
  %1 = alloca [100 x i8], align 16
  %2 = alloca [100 x i8], align 16
  %3 = getelementptr inbounds [100 x i8], [100 x i8]* %1, i64 0, i64 0
  call void @llvm.lifetime.start.p0i8(i64 100, i8* nonnull %3) #6
  %4 = getelementptr inbounds [100 x i8], [100 x i8]* %2, i64 0, i64 0
  call void @llvm.lifetime.start.p0i8(i64 100, i8* nonnull %4) #6
  call void @llvm.memset.p0i8.i64(i8* noundef nonnull align 16 dereferenceable(100) %3, i8 0, i64 100, i1 false)
  call void @llvm.memset.p0i8.i64(i8* noundef nonnull align 16 dereferenceable(100) %4, i8 0, i64 100, i1 false)
  %5 = call i32 (i8*, ...) @__isoc99_scanf(i8* getelementptr inbounds ([3 x i8], [3 x i8]* @.str, i64 0, i64 0), i8* nonnull %4)
  %6 = call i32 (i8*, ...) bitcast (i32 (...)* @gets to i32 (i8*, ...)*)(i8* nonnull %3) #6
  %7 = call i64 @strlen(i8* noundef nonnull %4) #7
  %8 = trunc i64 %7 to i32
  %9 = call i64 @strlen(i8* noundef nonnull %3) #7
  %10 = trunc i64 %9 to i32
  %11 = icmp slt i32 %10, %8
  br i1 %11, label %41, label %12

12:                                               ; preds = %0
  %13 = icmp sgt i32 %8, 0
  br i1 %13, label %14, label %38

14:                                               ; preds = %12
  %15 = add i64 %9, 1
  %16 = sub i64 %15, %7
  %17 = and i64 %16, 4294967295
  %18 = and i64 %7, 4294967295
  br label %19

19:                                               ; preds = %14, %32
  %20 = phi i64 [ 0, %14 ], [ %33, %32 ]
  br label %23

21:                                               ; preds = %23
  %22 = icmp eq i64 %31, %18
  br i1 %22, label %35, label %23, !llvm.loop !5

23:                                               ; preds = %19, %21
  %24 = phi i64 [ 0, %19 ], [ %31, %21 ]
  %25 = add nuw nsw i64 %24, %20
  %26 = getelementptr inbounds [100 x i8], [100 x i8]* %1, i64 0, i64 %25
  %27 = load i8, i8* %26, align 1, !tbaa !7
  %28 = getelementptr inbounds [100 x i8], [100 x i8]* %2, i64 0, i64 %24
  %29 = load i8, i8* %28, align 1, !tbaa !7
  %30 = icmp eq i8 %27, %29
  %31 = add nuw nsw i64 %24, 1
  br i1 %30, label %21, label %32

32:                                               ; preds = %23
  %33 = add nuw nsw i64 %20, 1
  %34 = icmp eq i64 %33, %17
  br i1 %34, label %41, label %19, !llvm.loop !10

35:                                               ; preds = %21
  %36 = trunc i64 %20 to i32
  %37 = add i32 %36, -1
  br label %38

38:                                               ; preds = %35, %12
  %39 = phi i32 [ -1, %12 ], [ %37, %35 ]
  %40 = call i32 (i8*, ...) @printf(i8* nonnull dereferenceable(1) getelementptr inbounds ([3 x i8], [3 x i8]* @.str.1, i64 0, i64 0), i32 %39)
  br label %41

41:                                               ; preds = %32, %0, %38
  call void @llvm.lifetime.end.p0i8(i64 100, i8* nonnull %4) #6
  call void @llvm.lifetime.end.p0i8(i64 100, i8* nonnull %3) #6
  ret i32 0
}

; Function Attrs: argmemonly mustprogress nofree nosync nounwind willreturn
declare void @llvm.lifetime.start.p0i8(i64 immarg, i8* nocapture) #1

; Function Attrs: argmemonly mustprogress nofree nounwind willreturn writeonly
declare void @llvm.memset.p0i8.i64(i8* nocapture writeonly, i8, i64, i1 immarg) #2

; Function Attrs: nofree nounwind
declare noundef i32 @__isoc99_scanf(i8* nocapture noundef readonly, ...) local_unnamed_addr #3

declare i32 @gets(...) local_unnamed_addr #4

; Function Attrs: argmemonly mustprogress nofree nounwind readonly willreturn
declare i64 @strlen(i8* nocapture) local_unnamed_addr #5

; Function Attrs: nofree nounwind
declare noundef i32 @printf(i8* nocapture noundef readonly, ...) local_unnamed_addr #3

; Function Attrs: argmemonly mustprogress nofree nosync nounwind willreturn
declare void @llvm.lifetime.end.p0i8(i64 immarg, i8* nocapture) #1


!llvm.module.flags = !{!0, !1, !2, !3}
!llvm.ident = !{!4}

!0 = !{i32 1, !"wchar_size", i32 4}
!1 = !{i32 7, !"PIC Level", i32 2}
!2 = !{i32 7, !"PIE Level", i32 2}
!3 = !{i32 7, !"uwtable", i32 1}
!4 = !{!"clang version 13.0.0"}
!5 = distinct !{!5, !6}
!6 = !{!"llvm.loop.mustprogress"}
!7 = !{!8, !8, i64 0}
!8 = !{!"omnipotent char", !9, i64 0}
!9 = !{!"Simple C/C++ TBAA"}
!10 = distinct !{!10, !6}
